; Function Attrs: mustprogress uwtable
define noundef zeroext i1 @_ZNK32pxrInternal_v0_24__pxrReserved__14PcpMapFunctionneERKS0_(ptr noundef nonnull align 8 dereferenceable(56) %0, ptr noundef nonnull align 8 dereferenceable(56) %1) local_unnamed_addr #0 align 2 {
  %3 = getelementptr inbounds nuw i8, ptr %0, i64 32
  %4 = load i32, ptr %3, align 8
  %5 = getelementptr inbounds nuw i8, ptr %1, i64 32
  %6 = load i32, ptr %5, align 8
  %7 = icmp eq i32 %4, %6
  br i1 %7, label %8, label %_ZNK32pxrInternal_v0_24__pxrReserved__14PcpMapFunctioneqERKS0_.exit

8:                                                ; preds = %2
  %9 = getelementptr inbounds nuw i8, ptr %0, i64 36
  %10 = load i8, ptr %9, align 4
  %11 = getelementptr inbounds nuw i8, ptr %1, i64 36
  %12 = load i8, ptr %11, align 4
  %13 = xor i8 %12, %10
  %14 = and i8 %13, 1
  %15 = icmp eq i8 %14, 0
  br i1 %15, label %16, label %_ZNK32pxrInternal_v0_24__pxrReserved__14PcpMapFunctioneqERKS0_.exit

16:                                               ; preds = %8
  %17 = icmp slt i32 %4, 3
  %18 = load ptr, ptr %0, align 8
  %spec.select.i.i.i = select i1 %17, ptr %0, ptr %18
  %19 = sext i32 %4 to i64
  %20 = getelementptr inbounds %"struct.std::pair", ptr %spec.select.i.i.i, i64 %19
  %.not9.i.i.i.i.i.i = icmp eq i32 %4, 0
  br i1 %.not9.i.i.i.i.i.i, label %_ZNK32pxrInternal_v0_24__pxrReserved__14PcpMapFunction5_DataeqERKS1_.exit.i, label %.lr.ph.i.i.i.i.preheader.i.i

.lr.ph.i.i.i.i.preheader.i.i:                     ; preds = %16
  %21 = load ptr, ptr %1, align 8
  %spec.select.i4.i.i = select i1 %17, ptr %1, ptr %21
  br label %.lr.ph.i.i.i.i.i.i

.lr.ph.i.i.i.i.i.i:                               ; preds = %27, %.lr.ph.i.i.i.i.preheader.i.i
  %.011.i.i.i.i.i.i = phi ptr [ %29, %27 ], [ %spec.select.i4.i.i, %.lr.ph.i.i.i.i.preheader.i.i ]
  %.0810.i.i.i.i.i.i = phi ptr [ %28, %27 ], [ %spec.select.i.i.i, %.lr.ph.i.i.i.i.preheader.i.i ]
  %.0.copyload.i.i.i.i.i.i.i.i.i = load i64, ptr %.0810.i.i.i.i.i.i, align 4
  %.0.copyload.i2.i.i.i.i.i.i.i.i = load i64, ptr %.011.i.i.i.i.i.i, align 4
  %22 = icmp eq i64 %.0.copyload.i.i.i.i.i.i.i.i.i, %.0.copyload.i2.i.i.i.i.i.i.i.i
  %23 = getelementptr inbounds nuw i8, ptr %.0810.i.i.i.i.i.i, i64 8
  %24 = getelementptr inbounds nuw i8, ptr %.011.i.i.i.i.i.i, i64 8
  %.0.copyload.i.i4.i.i.i.i.i.i.i = load i64, ptr %23, align 4
  %.0.copyload.i2.i5.i.i.i.i.i.i.i = load i64, ptr %24, align 4
  %25 = icmp eq i64 %.0.copyload.i.i4.i.i.i.i.i.i.i, %.0.copyload.i2.i5.i.i.i.i.i.i.i
  %26 = select i1 %22, i1 %25, i1 false
  br i1 %26, label %27, label %_ZNK32pxrInternal_v0_24__pxrReserved__14PcpMapFunctioneqERKS0_.exit

27:                                               ; preds = %.lr.ph.i.i.i.i.i.i
  %28 = getelementptr inbounds i8, ptr %.0810.i.i.i.i.i.i, i64 16
  %29 = getelementptr inbounds i8, ptr %.011.i.i.i.i.i.i, i64 16
  %.not.i.i.i.i.i.i = icmp eq ptr %28, %20
  br i1 %.not.i.i.i.i.i.i, label %_ZNK32pxrInternal_v0_24__pxrReserved__14PcpMapFunction5_DataeqERKS1_.exit.i, label %.lr.ph.i.i.i.i.i.i, !llvm.loop !22

_ZNK32pxrInternal_v0_24__pxrReserved__14PcpMapFunction5_DataeqERKS1_.exit.i: ; preds = %27, %16
  %30 = getelementptr inbounds nuw i8, ptr %0, i64 40
  %31 = getelementptr inbounds nuw i8, ptr %1, i64 40
  %32 = tail call noundef zeroext i1 @_ZNK32pxrInternal_v0_24__pxrReserved__14SdfLayerOffseteqERKS0_(ptr noundef nonnull align 8 dereferenceable(16) %30, ptr noundef nonnull align 8 dereferenceable(16) %31)
  %33 = xor i1 %32, true
  br label %_ZNK32pxrInternal_v0_24__pxrReserved__14PcpMapFunctioneqERKS0_.exit

_ZNK32pxrInternal_v0_24__pxrReserved__14PcpMapFunctioneqERKS0_.exit: ; preds = %.lr.ph.i.i.i.i.i.i, %2, %8, %_ZNK32pxrInternal_v0_24__pxrReserved__14PcpMapFunction5_DataeqERKS1_.exit.i
  %34 = phi i1 [ %33, %_ZNK32pxrInternal_v0_24__pxrReserved__14PcpMapFunction5_DataeqERKS1_.exit.i ], [ true, %8 ], [ true, %2 ], [ true, %.lr.ph.i.i.i.i.i.i ]
  ret i1 %34
}